target datalayout = "e-m:e-p270:32:32-p271:32:32-p272:64:64-i64:64-i128:128-f80:128-n8:16:32:64-S128"
target triple = "x86_64-pc-linux-gnu"

%struct.object_id = type { [32 x i8], i32 }
%union.anon = type { %struct.anon.0 }
%struct.anon.0 = type { ptr, i64, i32 }
%struct.repository = type { ptr, ptr, ptr, ptr, ptr, %struct.strmap, %struct.strmap, %struct.repo_path_cache, ptr, ptr, ptr, ptr, %struct.repo_settings, ptr, ptr, ptr, ptr, ptr, ptr, i32, i32, i32, ptr, ptr, i32, i32, i8 }
%struct.strmap = type { %struct.hashmap, ptr, i8 }
%struct.hashmap = type { ptr, ptr, ptr, i32, i32, i32, i32, i8 }
%struct.repo_path_cache = type { ptr, ptr, ptr, ptr, ptr, ptr, ptr }
%struct.repo_settings = type { i32, i32, i32, i32, i32, i32, i32, i32, i32, i32, i32, i32, ptr, i32, i32, i32, i32, i32, i32, i32, i64, i64, i64 }
%struct.git_hash_algo = type { ptr, i32, i64, i64, i64, ptr, ptr, ptr, ptr, ptr, ptr, ptr, ptr, ptr }
%struct.object_info = type { ptr, ptr, ptr, ptr, ptr, ptr, i32, %union.anon }

@the_repository = external global ptr, align 8
@.str.26 = private unnamed_addr constant [6 x i8] c"tree \00", align 1
@.str.27 = private unnamed_addr constant [8 x i8] c"object \00", align 1

; Function Attrs: nounwind uwtable
define dso_local ptr @repo_read_object_file(ptr noundef %0, ptr noundef %1, ptr noundef %2, ptr noundef %3) #0 {
  %5 = alloca ptr, align 8
  %6 = alloca ptr, align 8
  %7 = alloca ptr, align 8
  %8 = alloca ptr, align 8
  %9 = alloca ptr, align 8
  %10 = alloca %struct.object_info, align 8
  %11 = alloca i32, align 4
  %12 = alloca ptr, align 8
  %13 = alloca i32, align 4
  store ptr %0, ptr %6, align 8, !tbaa !19
  store ptr %1, ptr %7, align 8, !tbaa !14
  store ptr %2, ptr %8, align 8, !tbaa !9
  store ptr %3, ptr %9, align 8, !tbaa !111
  call void @llvm.lifetime.start.p0(i64 80, ptr %10) #14
  call void @llvm.memset.p0.i64(ptr align 8 %10, i8 0, i64 80, i1 false)
  call void @llvm.lifetime.start.p0(i64 4, ptr %11) #14
  store i32 33, ptr %11, align 4, !tbaa !43
  call void @llvm.lifetime.start.p0(i64 8, ptr %12) #14
  %14 = load ptr, ptr %8, align 8, !tbaa !9
  %15 = getelementptr inbounds nuw %struct.object_info, ptr %10, i32 0, i32 0
  store ptr %14, ptr %15, align 8, !tbaa !130
  %16 = load ptr, ptr %9, align 8, !tbaa !111
  %17 = getelementptr inbounds nuw %struct.object_info, ptr %10, i32 0, i32 1
  store ptr %16, ptr %17, align 8, !tbaa !131
  %18 = getelementptr inbounds nuw %struct.object_info, ptr %10, i32 0, i32 5
  store ptr %12, ptr %18, align 8, !tbaa !134
  %19 = load ptr, ptr %6, align 8, !tbaa !19
  %20 = load ptr, ptr %7, align 8, !tbaa !14
  %21 = load i32, ptr %11, align 4, !tbaa !43
  %22 = call i32 @oid_object_info_extended(ptr noundef %19, ptr noundef %20, ptr noundef %10, i32 noundef %21)
  %23 = icmp ne i32 %22, 0
  br i1 %23, label %24, label %25

24:                                               ; preds = %4
  store ptr null, ptr %5, align 8
  store i32 1, ptr %13, align 4
  br label %27

25:                                               ; preds = %4
  %26 = load ptr, ptr %12, align 8, !tbaa !9
  store ptr %26, ptr %5, align 8
  store i32 1, ptr %13, align 4
  br label %27

27:                                               ; preds = %25, %24
  call void @llvm.lifetime.end.p0(i64 8, ptr %12) #14
  call void @llvm.lifetime.end.p0(i64 4, ptr %11) #14
  call void @llvm.lifetime.end.p0(i64 80, ptr %10) #14
  %28 = load ptr, ptr %5, align 8
  ret ptr %28
}

; Function Attrs: inlinehint nounwind uwtable
define internal void @oidcpy(ptr noundef %0, ptr noundef %1) #7 {
  %3 = alloca ptr, align 8
  %4 = alloca ptr, align 8
  store ptr %0, ptr %3, align 8, !tbaa !14
  store ptr %1, ptr %4, align 8, !tbaa !14
  %5 = load ptr, ptr %3, align 8, !tbaa !14
  %6 = getelementptr inbounds nuw %struct.object_id, ptr %5, i32 0, i32 0
  %7 = getelementptr inbounds [32 x i8], ptr %6, i64 0, i64 0
  %8 = load ptr, ptr %4, align 8, !tbaa !14
  %9 = getelementptr inbounds nuw %struct.object_id, ptr %8, i32 0, i32 0
  %10 = getelementptr inbounds [32 x i8], ptr %9, i64 0, i64 0
  call void @llvm.memcpy.p0.p0.i64(ptr align 4 %7, ptr align 4 %10, i64 32, i1 false)
  %11 = load ptr, ptr %4, align 8, !tbaa !14
  %12 = getelementptr inbounds nuw %struct.object_id, ptr %11, i32 0, i32 1
  %13 = load i32, ptr %12, align 4, !tbaa !16
  %14 = load ptr, ptr %3, align 8, !tbaa !14
  %15 = getelementptr inbounds nuw %struct.object_id, ptr %14, i32 0, i32 1
  store i32 %13, ptr %15, align 4, !tbaa !16
  ret void
}

; Function Attrs: nounwind uwtable
define dso_local ptr @read_object_with_reference(ptr noundef %0, ptr noundef %1, i32 noundef %2, ptr noundef %3, ptr noundef %4) #0 {
  %6 = alloca ptr, align 8
  %7 = alloca ptr, align 8
  %8 = alloca ptr, align 8
  %9 = alloca i32, align 4
  %10 = alloca ptr, align 8
  %11 = alloca ptr, align 8
  %12 = alloca i32, align 4
  %13 = alloca ptr, align 8
  %14 = alloca i64, align 8
  %15 = alloca %struct.object_id, align 4
  %16 = alloca i32, align 4
  %17 = alloca ptr, align 8
  %18 = alloca i32, align 4
  store ptr %0, ptr %7, align 8, !tbaa !19
  store ptr %1, ptr %8, align 8, !tbaa !14
  store i32 %2, ptr %9, align 4, !tbaa !43
  store ptr %3, ptr %10, align 8, !tbaa !111
  store ptr %4, ptr %11, align 8, !tbaa !14
  call void @llvm.lifetime.start.p0(i64 4, ptr %12) #14
  call void @llvm.lifetime.start.p0(i64 8, ptr %13) #14
  call void @llvm.lifetime.start.p0(i64 8, ptr %14) #14
  call void @llvm.lifetime.start.p0(i64 36, ptr %15) #14
  %19 = load ptr, ptr %8, align 8, !tbaa !14
  call void @oidcpy(ptr noundef %15, ptr noundef %19)
  br label %20

20:                                               ; preds = %86, %5
  br label %21

21:                                               ; preds = %20
  call void @llvm.lifetime.start.p0(i64 4, ptr %16) #14
  store i32 -1, ptr %16, align 4, !tbaa !43
  call void @llvm.lifetime.start.p0(i64 8, ptr %17) #14
  store ptr null, ptr %17, align 8, !tbaa !12
  %22 = load ptr, ptr %7, align 8, !tbaa !19
  %23 = call ptr @repo_read_object_file(ptr noundef %22, ptr noundef %15, ptr noundef %12, ptr noundef %14)
  store ptr %23, ptr %13, align 8, !tbaa !9
  %24 = load ptr, ptr %13, align 8, !tbaa !9
  %25 = icmp ne ptr %24, null
  br i1 %25, label %27, label %26

26:                                               ; preds = %21
  store ptr null, ptr %6, align 8
  store i32 1, ptr %18, align 4
  br label %84

27:                                               ; preds = %21
  %28 = load i32, ptr %12, align 4, !tbaa !43
  %29 = load i32, ptr %9, align 4, !tbaa !43
  %30 = icmp eq i32 %28, %29
  br i1 %30, label %31, label %40

31:                                               ; preds = %27
  %32 = load i64, ptr %14, align 8, !tbaa !10
  %33 = load ptr, ptr %10, align 8, !tbaa !111
  store i64 %32, ptr %33, align 8, !tbaa !10
  %34 = load ptr, ptr %11, align 8, !tbaa !14
  %35 = icmp ne ptr %34, null
  br i1 %35, label %36, label %38

36:                                               ; preds = %31
  %37 = load ptr, ptr %11, align 8, !tbaa !14
  call void @oidcpy(ptr noundef %37, ptr noundef %15)
  br label %38

38:                                               ; preds = %36, %31
  %39 = load ptr, ptr %13, align 8, !tbaa !9
  store ptr %39, ptr %6, align 8
  store i32 1, ptr %18, align 4
  br label %84

40:                                               ; preds = %27
  %41 = load i32, ptr %12, align 4, !tbaa !43
  %42 = icmp eq i32 %41, 1
  br i1 %42, label %43, label %44

43:                                               ; preds = %40
  store ptr @.str.26, ptr %17, align 8, !tbaa !12
  br label %51

44:                                               ; preds = %40
  %45 = load i32, ptr %12, align 4, !tbaa !43
  %46 = icmp eq i32 %45, 4
  br i1 %46, label %47, label %48

47:                                               ; preds = %44
  store ptr @.str.27, ptr %17, align 8, !tbaa !12
  br label %50

48:                                               ; preds = %44
  %49 = load ptr, ptr %13, align 8, !tbaa !9
  call void @free(ptr noundef %49) #14
  store ptr null, ptr %6, align 8
  store i32 1, ptr %18, align 4
  br label %84

50:                                               ; preds = %47
  br label %51

51:                                               ; preds = %50, %43
  br label %52

52:                                               ; preds = %51
  %53 = load ptr, ptr %17, align 8, !tbaa !12
  %54 = call i64 @strlen(ptr noundef %53) #15
  %55 = trunc i64 %54 to i32
  store i32 %55, ptr %16, align 4, !tbaa !43
  %56 = load i32, ptr %16, align 4, !tbaa !43
  %57 = sext i32 %56 to i64
  %58 = load ptr, ptr @the_repository, align 8, !tbaa !19
  %59 = getelementptr inbounds nuw %struct.repository, ptr %58, i32 0, i32 17
  %60 = load ptr, ptr %59, align 8, !tbaa !21
  %61 = getelementptr inbounds nuw %struct.git_hash_algo, ptr %60, i32 0, i32 3
  %62 = load i64, ptr %61, align 8, !tbaa !161
  %63 = add i64 %57, %62
  %64 = load i64, ptr %14, align 8, !tbaa !10
  %65 = icmp ugt i64 %63, %64
  br i1 %65, label %80, label %66

66:                                               ; preds = %52
  %67 = load ptr, ptr %13, align 8, !tbaa !9
  %68 = load ptr, ptr %17, align 8, !tbaa !12
  %69 = load i32, ptr %16, align 4, !tbaa !43
  %70 = sext i32 %69 to i64
  %71 = call i32 @memcmp(ptr noundef %67, ptr noundef %68, i64 noundef %70) #15
  %72 = icmp ne i32 %71, 0
  br i1 %72, label %80, label %73

73:                                               ; preds = %66
  %74 = load ptr, ptr %13, align 8, !tbaa !9
  %75 = load i32, ptr %16, align 4, !tbaa !43
  %76 = sext i32 %75 to i64
  %77 = getelementptr inbounds i8, ptr %74, i64 %76
  %78 = call i32 @get_oid_hex(ptr noundef %77, ptr noundef %15)
  %79 = icmp ne i32 %78, 0
  br i1 %79, label %80, label %82

80:                                               ; preds = %73, %66, %52
  %81 = load ptr, ptr %13, align 8, !tbaa !9
  call void @free(ptr noundef %81) #14
  store ptr null, ptr %6, align 8
  store i32 1, ptr %18, align 4
  br label %84

82:                                               ; preds = %73
  %83 = load ptr, ptr %13, align 8, !tbaa !9
  call void @free(ptr noundef %83) #14
  store i32 0, ptr %18, align 4
  br label %84

84:                                               ; preds = %82, %80, %48, %38, %26
  call void @llvm.lifetime.end.p0(i64 8, ptr %17) #14
  call void @llvm.lifetime.end.p0(i64 4, ptr %16) #14
  %85 = load i32, ptr %18, align 4
  switch i32 %85, label %87 [
    i32 0, label %86
  ]

86:                                               ; preds = %84
  br label %20

87:                                               ; preds = %84
  call void @llvm.lifetime.end.p0(i64 36, ptr %15) #14
  call void @llvm.lifetime.end.p0(i64 8, ptr %14) #14
  call void @llvm.lifetime.end.p0(i64 8, ptr %13) #14
  call void @llvm.lifetime.end.p0(i64 4, ptr %12) #14
  %88 = load ptr, ptr %6, align 8
  ret ptr %88
}