; Function Attrs: nounwind uwtable
define dso_local ptr @read_object_with_reference(ptr noundef %0, ptr noundef readonly captures(none) %1, i32 noundef %2, ptr noundef writeonly captures(none) %3, ptr noundef writeonly %4) local_unnamed_addr #1 {
  %6 = alloca %struct.object_info, align 8
  %7 = alloca ptr, align 8
  %8 = alloca i32, align 4
  %9 = alloca i64, align 8
  %10 = alloca %struct.object_id, align 4
  call void @llvm.lifetime.start.p0(i64 4, ptr nonnull %8) #27
  call void @llvm.lifetime.start.p0(i64 8, ptr nonnull %9) #27
  call void @llvm.lifetime.start.p0(i64 36, ptr nonnull %10) #27
  call void @llvm.memcpy.p0.p0.i64(ptr noundef nonnull align 4 dereferenceable(32) %10, ptr noundef nonnull readonly align 4 dereferenceable(32) %1, i64 32, i1 false)
  %11 = getelementptr inbounds nuw i8, ptr %1, i64 32
  %12 = load i32, ptr %11, align 4, !tbaa !4
  %13 = getelementptr inbounds nuw i8, ptr %10, i64 32
  store i32 %12, ptr %13, align 4, !tbaa !4
  %14 = getelementptr inbounds nuw i8, ptr %6, i64 16
  %15 = getelementptr inbounds nuw i8, ptr %6, i64 8
  %16 = getelementptr inbounds nuw i8, ptr %6, i64 40
  call void @llvm.lifetime.start.p0(i64 80, ptr nonnull %6) #27
  call void @llvm.memset.p0.i64(ptr noundef nonnull align 8 dereferenceable(80) %14, i8 0, i64 64, i1 false)
  call void @llvm.lifetime.start.p0(i64 8, ptr nonnull %7) #27
  store ptr %8, ptr %6, align 8, !tbaa !116
  store ptr %9, ptr %15, align 8, !tbaa !117
  store ptr %7, ptr %16, align 8, !tbaa !120
  %17 = call i32 @oid_object_info_extended(ptr noundef %0, ptr noundef nonnull %10, ptr noundef nonnull %6, i32 noundef 33)
  %.not.i34 = icmp ne i32 %17, 0
  %18 = load ptr, ptr %7, align 8
  call void @llvm.lifetime.end.p0(i64 8, ptr nonnull %7) #27
  call void @llvm.lifetime.end.p0(i64 80, ptr nonnull %6) #27
  %.not3035 = icmp eq ptr %18, null
  %.not36 = select i1 %.not.i34, i1 true, i1 %.not3035
  br i1 %.not36, label %.loopexit, label %.lr.ph

.lr.ph:                                           ; preds = %5, %46
  %19 = phi ptr [ %48, %46 ], [ %18, %5 ]
  %20 = load i32, ptr %8, align 4, !tbaa !44
  %21 = icmp eq i32 %20, %2
  br i1 %21, label %22, label %27

22:                                               ; preds = %.lr.ph
  %23 = load i64, ptr %9, align 8, !tbaa !94
  store i64 %23, ptr %3, align 8, !tbaa !94
  %.not26 = icmp eq ptr %4, null
  br i1 %.not26, label %.loopexit, label %24

24:                                               ; preds = %22
  call void @llvm.memcpy.p0.p0.i64(ptr noundef nonnull align 4 dereferenceable(32) %4, ptr noundef nonnull readonly align 4 dereferenceable(32) %10, i64 32, i1 false)
  %25 = load i32, ptr %13, align 4, !tbaa !4
  %26 = getelementptr inbounds nuw i8, ptr %4, i64 32
  store i32 %25, ptr %26, align 4, !tbaa !4
  br label %.loopexit

27:                                               ; preds = %.lr.ph
  switch i32 %20, label %29 [
    i32 1, label %30
    i32 4, label %28
  ]

28:                                               ; preds = %27
  br label %30

29:                                               ; preds = %27
  call void @free(ptr noundef nonnull %19) #27
  br label %.loopexit

30:                                               ; preds = %27, %28
  %.019 = phi ptr [ @.str.27, %28 ], [ @.str.26, %27 ]
  %31 = call i64 @strlen(ptr noundef nonnull dereferenceable(1) %.019) #28
  %sext = shl i64 %31, 32
  %32 = ashr exact i64 %sext, 32
  %33 = load ptr, ptr @the_repository, align 8, !tbaa !9
  %34 = getelementptr inbounds nuw i8, ptr %33, i64 400
  %35 = load ptr, ptr %34, align 8, !tbaa !12
  %36 = getelementptr inbounds nuw i8, ptr %35, i64 24
  %37 = load i64, ptr %36, align 8, !tbaa !151
  %38 = add i64 %37, %32
  %39 = load i64, ptr %9, align 8, !tbaa !94
  %40 = icmp ugt i64 %38, %39
  br i1 %40, label %45, label %41

41:                                               ; preds = %30
  %bcmp = call i32 @bcmp(ptr nonnull %19, ptr nonnull %.019, i64 %32)
  %.not24 = icmp eq i32 %bcmp, 0
  br i1 %.not24, label %42, label %45

42:                                               ; preds = %41
  %43 = getelementptr inbounds i8, ptr %19, i64 %32
  %44 = call i32 @get_oid_hex(ptr noundef nonnull %43, ptr noundef nonnull %10) #27
  %.not25 = icmp eq i32 %44, 0
  br i1 %.not25, label %46, label %45

45:                                               ; preds = %42, %41, %30
  call void @free(ptr noundef nonnull %19) #27
  br label %.loopexit

46:                                               ; preds = %42
  call void @free(ptr noundef nonnull %19) #27
  call void @llvm.lifetime.start.p0(i64 80, ptr nonnull %6) #27
  call void @llvm.memset.p0.i64(ptr noundef nonnull align 8 dereferenceable(80) %14, i8 0, i64 64, i1 false)
  call void @llvm.lifetime.start.p0(i64 8, ptr nonnull %7) #27
  store ptr %8, ptr %6, align 8, !tbaa !116
  store ptr %9, ptr %15, align 8, !tbaa !117
  store ptr %7, ptr %16, align 8, !tbaa !120
  %47 = call i32 @oid_object_info_extended(ptr noundef %0, ptr noundef nonnull %10, ptr noundef nonnull %6, i32 noundef 33)
  %.not.i = icmp ne i32 %47, 0
  %48 = load ptr, ptr %7, align 8
  call void @llvm.lifetime.end.p0(i64 8, ptr nonnull %7) #27
  call void @llvm.lifetime.end.p0(i64 80, ptr nonnull %6) #27
  %.not30 = icmp eq ptr %48, null
  %.not = select i1 %.not.i, i1 true, i1 %.not30
  br i1 %.not, label %.loopexit, label %.lr.ph

.loopexit:                                        ; preds = %46, %5, %45, %29, %24, %22
  %.1.ph = phi ptr [ %19, %22 ], [ %19, %24 ], [ null, %29 ], [ null, %45 ], [ null, %5 ], [ null, %46 ]
  call void @llvm.lifetime.end.p0(i64 36, ptr nonnull %10) #27
  call void @llvm.lifetime.end.p0(i64 8, ptr nonnull %9) #27
  call void @llvm.lifetime.end.p0(i64 4, ptr nonnull %8) #27
  ret ptr %.1.ph
}